; Function Attrs: mustprogress nounwind uwtable
define noundef ptr @proj_get_name(ptr noundef readonly %0) local_unnamed_addr #0 {
  %.not = icmp eq ptr %0, null
  br i1 %.not, label %.thread, label %2

2:                                                ; preds = %1
  %3 = getelementptr inbounds i8, ptr %0, i64 640
  %4 = load ptr, ptr %3, align 8
  %5 = icmp eq ptr %4, null
  br i1 %5, label %.thread, label %6

6:                                                ; preds = %2
  %7 = tail call ptr @__dynamic_cast(ptr nonnull %4, ptr nonnull @_ZTIN5osgeo4proj4util10BaseObjectE, ptr nonnull @_ZTIN5osgeo4proj6common16IdentifiedObjectE, i64 0) #27
  %.not10 = icmp eq ptr %7, null
  br i1 %.not10, label %.thread, label %8

8:                                                ; preds = %6
  %9 = tail call noundef nonnull align 8 dereferenceable(16) ptr @_ZNK5osgeo4proj6common16IdentifiedObject4nameEv(ptr noundef nonnull align 8 dereferenceable(40) %7) #32
  %10 = load ptr, ptr %9, align 8
  %11 = tail call noundef nonnull align 8 dereferenceable(40) ptr @_ZNK5osgeo4proj8metadata10Identifier11descriptionB5cxx11Ev(ptr noundef nonnull align 8 dereferenceable(40) %10) #32
  %12 = load i8, ptr %11, align 8
  %13 = trunc i8 %12 to i1
  br i1 %13, label %14, label %.thread

14:                                               ; preds = %8
  %15 = getelementptr inbounds i8, ptr %11, i64 8
  %16 = tail call noundef ptr @_ZNKSt7__cxx1112basic_stringIcSt11char_traitsIcESaIcEE5c_strEv(ptr noundef nonnull align 8 dereferenceable(32) %15) #27
  br label %.thread

.thread:                                          ; preds = %2, %8, %6, %1, %14
  %.0 = phi ptr [ %16, %14 ], [ null, %1 ], [ null, %6 ], [ null, %8 ], [ null, %2 ]
  ret ptr %.0
}